; Function Attrs: nounwind sspstrong uwtable
define internal noalias ptr @machine_get_memory_encryption(ptr noundef %obj, ptr readnone captures(none) %errp) #0 {
entry:
  %call.i = tail call ptr @object_dynamic_cast_assert(ptr noundef %obj, ptr noundef nonnull @.str.225, ptr noundef nonnull @.str.226, i32 noundef 23, ptr noundef nonnull @__func__.MACHINE) #16
  %cgs = getelementptr inbounds nuw i8, ptr %call.i, i64 104
  %0 = load ptr, ptr %cgs, align 8
  %tobool.not = icmp eq ptr %0, null
  br i1 %tobool.not, label %return, label %if.then

if.then:                                          ; preds = %entry
  %call2 = tail call ptr @object_get_canonical_path_component(ptr noundef nonnull %0) #16
  %call3 = tail call noalias ptr @g_strdup(ptr noundef %call2) #16
  br label %return

return:                                           ; preds = %entry, %if.then
  %retval.0 = phi ptr [ %call3, %if.then ], [ null, %entry ]
  ret ptr %retval.0
}